target datalayout = "e-m:e-p270:32:32-p271:32:32-p272:64:64-i64:64-i128:128-f80:128-n8:16:32:64-S128"
target triple = "x86_64-pc-linux-gnu"

%"class.cv::Point_" = type { float, float }
%"class.cv::utils::trace::details::Region" = type <{ ptr, i32, [4 x i8] }>
%"struct.std::_Vector_base.9" = type { %"struct.std::_Vector_base<cv::Point_<float>, std::allocator<cv::Point_<float>>>::_Vector_impl" }
%"struct.std::_Vector_base<cv::Point_<float>, std::allocator<cv::Point_<float>>>::_Vector_impl" = type { %"struct.std::_Vector_base<cv::Point_<float>, std::allocator<cv::Point_<float>>>::_Vector_impl_data" }
%"struct.std::_Vector_base<cv::Point_<float>, std::allocator<cv::Point_<float>>>::_Vector_impl_data" = type { ptr, ptr, ptr }

; Function Attrs: mustprogress nounwind uwtable
define linkonce_odr hidden noundef nonnull align 4 dereferenceable(8) ptr @_ZNKSt6vectorIN2cv6Point_IfEESaIS2_EEixEm(ptr noundef nonnull align 8 dereferenceable(24) %0, i64 noundef %1) #0 comdat align 2 {
  %3 = alloca ptr, align 8
  %4 = alloca i64, align 8
  store ptr %0, ptr %3, align 8, !tbaa !85
  store i64 %1, ptr %4, align 8, !tbaa !12
  %5 = load ptr, ptr %3, align 8
  %6 = getelementptr inbounds nuw %"struct.std::_Vector_base.9", ptr %5, i32 0, i32 0
  %7 = getelementptr inbounds nuw %"struct.std::_Vector_base<cv::Point_<float>, std::allocator<cv::Point_<float>>>::_Vector_impl_data", ptr %6, i32 0, i32 0
  %8 = load ptr, ptr %7, align 8, !tbaa !90
  %9 = load i64, ptr %4, align 8, !tbaa !12
  %10 = getelementptr inbounds nuw %"class.cv::Point_", ptr %8, i64 %9
  ret ptr %10
}

; Function Attrs: mustprogress nounwind uwtable
define linkonce_odr hidden noundef i64 @_ZNKSt6vectorIN2cv6Point_IfEESaIS2_EE4sizeEv(ptr noundef nonnull align 8 dereferenceable(24) %0) #0 comdat align 2 {
  %2 = alloca ptr, align 8
  store ptr %0, ptr %2, align 8, !tbaa !85
  %3 = load ptr, ptr %2, align 8
  %4 = getelementptr inbounds nuw %"struct.std::_Vector_base.9", ptr %3, i32 0, i32 0
  %5 = getelementptr inbounds nuw %"struct.std::_Vector_base<cv::Point_<float>, std::allocator<cv::Point_<float>>>::_Vector_impl_data", ptr %4, i32 0, i32 1
  %6 = load ptr, ptr %5, align 8, !tbaa !88
  %7 = getelementptr inbounds nuw %"struct.std::_Vector_base.9", ptr %3, i32 0, i32 0
  %8 = getelementptr inbounds nuw %"struct.std::_Vector_base<cv::Point_<float>, std::allocator<cv::Point_<float>>>::_Vector_impl_data", ptr %7, i32 0, i32 0
  %9 = load ptr, ptr %8, align 8, !tbaa !90
  %10 = ptrtoint ptr %6 to i64
  %11 = ptrtoint ptr %9 to i64
  %12 = sub i64 %10, %11
  %13 = sdiv exact i64 %12, 8
  ret i64 %13
}

; Function Attrs: mustprogress uwtable
define void @_ZN2cv8Subdiv2D6insertERKSt6vectorINS_6Point_IfEESaIS3_EE(ptr noundef nonnull align 8 dereferenceable(80) %0, ptr noundef nonnull align 8 dereferenceable(24) %1) #6 align 2 personality ptr @__gxx_personality_v0 {
  %3 = alloca ptr, align 8
  %4 = alloca ptr, align 8
  %5 = alloca %"class.cv::utils::trace::details::Region", align 8
  %6 = alloca i64, align 8
  %7 = alloca %"class.cv::Point_", align 4
  %8 = alloca ptr, align 8
  %9 = alloca i32, align 4
  store ptr %0, ptr %3, align 8, !tbaa !3
  store ptr %1, ptr %4, align 8, !tbaa !85
  %10 = load ptr, ptr %3, align 8
  call void @llvm.lifetime.start.p0(i64 16, ptr %5) #20
  call void @_ZN2cv5utils5trace7details6RegionC1ERKNS3_21LocationStaticStorageE(ptr noundef nonnull align 8 dereferenceable(12) %5, ptr noundef nonnull align 8 dereferenceable(32) @_ZZN2cv8Subdiv2D6insertERKSt6vectorINS_6Point_IfEESaIS3_EEE25__cv_trace_location_fn486)
  call void @llvm.lifetime.start.p0(i64 8, ptr %6) #20
  store i64 0, ptr %6, align 8, !tbaa !12
  br label %11

11:                                               ; preds = %24, %2
  %12 = load i64, ptr %6, align 8, !tbaa !12
  %13 = load ptr, ptr %4, align 8, !tbaa !85
  %14 = call noundef i64 @_ZNKSt6vectorIN2cv6Point_IfEESaIS2_EE4sizeEv(ptr noundef nonnull align 8 dereferenceable(24) %13) #20
  %15 = icmp ult i64 %12, %14
  br i1 %15, label %17, label %16

16:                                               ; preds = %11
  call void @llvm.lifetime.end.p0(i64 8, ptr %6) #20
  br label %31

17:                                               ; preds = %11
  %18 = load ptr, ptr %4, align 8, !tbaa !85
  %19 = load i64, ptr %6, align 8, !tbaa !12
  %20 = call noundef nonnull align 4 dereferenceable(8) ptr @_ZNKSt6vectorIN2cv6Point_IfEESaIS2_EEixEm(ptr noundef nonnull align 8 dereferenceable(24) %18, i64 noundef %19) #20
  call void @llvm.memcpy.p0.p0.i64(ptr align 4 %7, ptr align 4 %20, i64 8, i1 false), !tbaa.struct !19
  %21 = load <2 x float>, ptr %7, align 4
  %22 = invoke noundef i32 @_ZN2cv8Subdiv2D6insertENS_6Point_IfEE(ptr noundef nonnull align 8 dereferenceable(80) %10, <2 x float> %21)
          to label %23 unwind label %27

23:                                               ; preds = %17
  br label %24

24:                                               ; preds = %23
  %25 = load i64, ptr %6, align 8, !tbaa !12
  %26 = add i64 %25, 1
  store i64 %26, ptr %6, align 8, !tbaa !12
  br label %11, !llvm.loop !87

27:                                               ; preds = %17
  %28 = landingpad { ptr, i32 }
          cleanup
  %29 = extractvalue { ptr, i32 } %28, 0
  store ptr %29, ptr %8, align 8
  %30 = extractvalue { ptr, i32 } %28, 1
  store i32 %30, ptr %9, align 4
  call void @llvm.lifetime.end.p0(i64 8, ptr %6) #20
  call void @_ZN2cv5utils5trace7details6RegionD2Ev(ptr noundef nonnull align 8 dereferenceable(12) %5) #20
  call void @llvm.lifetime.end.p0(i64 16, ptr %5) #20
  br label %32

31:                                               ; preds = %16
  call void @_ZN2cv5utils5trace7details6RegionD2Ev(ptr noundef nonnull align 8 dereferenceable(12) %5) #20
  call void @llvm.lifetime.end.p0(i64 16, ptr %5) #20
  ret void

32:                                               ; preds = %27
  %33 = load ptr, ptr %8, align 8
  %34 = load i32, ptr %9, align 4
  %35 = insertvalue { ptr, i32 } poison, ptr %33, 0
  %36 = insertvalue { ptr, i32 } %35, i32 %34, 1
  resume { ptr, i32 } %36
}