; Function Attrs: mustprogress uwtable
define void @_ZN2cv8Subdiv2D6insertERKSt6vectorINS_6Point_IfEESaIS3_EE(ptr noundef nonnull align 8 dereferenceable(80) %0, ptr noundef nonnull readonly align 8 captures(none) dereferenceable(24) %1) local_unnamed_addr #8 align 2 personality ptr @__gxx_personality_v0 {
  %3 = alloca %"class.cv::utils::trace::details::Region", align 8
  call void @llvm.lifetime.start.p0(i64 16, ptr nonnull %3) #28
  call void @_ZN2cv5utils5trace7details6RegionC1ERKNS3_21LocationStaticStorageE(ptr noundef nonnull align 8 dereferenceable(12) %3, ptr noundef nonnull align 8 dereferenceable(32) @_ZZN2cv8Subdiv2D6insertERKSt6vectorINS_6Point_IfEESaIS3_EEE25__cv_trace_location_fn486)
  %4 = getelementptr inbounds nuw i8, ptr %1, i64 8
  %5 = load ptr, ptr %4, align 8, !tbaa !70
  %6 = load ptr, ptr %1, align 8, !tbaa !73
  %.not = icmp eq ptr %5, %6
  br i1 %.not, label %._crit_edge, label %.lr.ph

._crit_edge:                                      ; preds = %16, %2
  %7 = getelementptr inbounds nuw i8, ptr %3, i64 8
  %8 = load i32, ptr %7, align 8, !tbaa !49
  %.not.i = icmp eq i32 %8, 0
  br i1 %.not.i, label %_ZN2cv5utils5trace7details6RegionD2Ev.exit, label %9

9:                                                ; preds = %._crit_edge
  invoke void @_ZN2cv5utils5trace7details6Region7destroyEv(ptr noundef nonnull align 8 dereferenceable(12) %3)
          to label %_ZN2cv5utils5trace7details6RegionD2Ev.exit unwind label %10

10:                                               ; preds = %9
  %11 = landingpad { ptr, i32 }
          catch ptr null
  %12 = extractvalue { ptr, i32 } %11, 0
  call void @__clang_call_terminate(ptr %12) #31
  unreachable

_ZN2cv5utils5trace7details6RegionD2Ev.exit:       ; preds = %._crit_edge, %9
  call void @llvm.lifetime.end.p0(i64 16, ptr nonnull %3) #28
  ret void

.lr.ph:                                           ; preds = %2, %16
  %13 = phi ptr [ %19, %16 ], [ %6, %2 ]
  %.07 = phi i64 [ %17, %16 ], [ 0, %2 ]
  %14 = getelementptr inbounds nuw %"class.cv::Point_", ptr %13, i64 %.07
  %.sroa.0.0.copyload = load <2 x float>, ptr %14, align 4
  %15 = invoke noundef i32 @_ZN2cv8Subdiv2D6insertENS_6Point_IfEE(ptr noundef nonnull align 8 dereferenceable(80) %0, <2 x float> %.sroa.0.0.copyload)
          to label %16 unwind label %25

16:                                               ; preds = %.lr.ph
  %17 = add nuw i64 %.07, 1
  %18 = load ptr, ptr %4, align 8, !tbaa !70
  %19 = load ptr, ptr %1, align 8, !tbaa !73
  %20 = ptrtoint ptr %18 to i64
  %21 = ptrtoint ptr %19 to i64
  %22 = sub i64 %20, %21
  %23 = ashr exact i64 %22, 3
  %24 = icmp ult i64 %17, %23
  br i1 %24, label %.lr.ph, label %._crit_edge, !llvm.loop !74

25:                                               ; preds = %.lr.ph
  %26 = landingpad { ptr, i32 }
          cleanup
  call void @_ZN2cv5utils5trace7details6RegionD2Ev(ptr noundef nonnull align 8 dereferenceable(12) %3) #28
  call void @llvm.lifetime.end.p0(i64 16, ptr nonnull %3) #28
  resume { ptr, i32 } %26
}